ARM GAS  C:\Users\Main\AppData\Local\Temp\ccXh0QiE.s 			page 1


   1              		.cpu cortex-m3
   2              		.eabi_attribute 20, 1
   3              		.eabi_attribute 21, 1
   4              		.eabi_attribute 23, 3
   5              		.eabi_attribute 24, 1
   6              		.eabi_attribute 25, 1
   7              		.eabi_attribute 26, 1
   8              		.eabi_attribute 30, 1
   9              		.eabi_attribute 34, 1
  10              		.eabi_attribute 18, 4
  11              		.file	"can.c"
  12              		.text
  13              	.Ltext0:
  14              		.cfi_sections	.debug_frame
  15              		.section	.text.MX_CAN_Init,"ax",%progbits
  16              		.align	1
  17              		.global	MX_CAN_Init
  18              		.arch armv7-m
  19              		.syntax unified
  20              		.thumb
  21              		.thumb_func
  22              		.fpu softvfp
  24              	MX_CAN_Init:
  25              	.LFB65:
  26              		.file 1 "Core/Src/can.c"
   1:Core/Src/can.c **** /**
   2:Core/Src/can.c ****   ******************************************************************************
   3:Core/Src/can.c ****   * File Name          : CAN.c
   4:Core/Src/can.c ****   * Description        : This file provides code for the configuration
   5:Core/Src/can.c ****   *                      of the CAN instances.
   6:Core/Src/can.c ****   ******************************************************************************
   7:Core/Src/can.c ****   * @attention
   8:Core/Src/can.c ****   *
   9:Core/Src/can.c ****   * <h2><center>&copy; Copyright (c) 2019 STMicroelectronics.
  10:Core/Src/can.c ****   * All rights reserved.</center></h2>
  11:Core/Src/can.c ****   *
  12:Core/Src/can.c ****   * This software component is licensed by ST under BSD 3-Clause license,
  13:Core/Src/can.c ****   * the "License"; You may not use this file except in compliance with the
  14:Core/Src/can.c ****   * License. You may obtain a copy of the License at:
  15:Core/Src/can.c ****   *                        opensource.org/licenses/BSD-3-Clause
  16:Core/Src/can.c ****   *
  17:Core/Src/can.c ****   ******************************************************************************
  18:Core/Src/can.c ****   */
  19:Core/Src/can.c **** 
  20:Core/Src/can.c **** /* Includes ------------------------------------------------------------------*/
  21:Core/Src/can.c **** #include "can.h"
  22:Core/Src/can.c **** 
  23:Core/Src/can.c **** /* USER CODE BEGIN 0 */
  24:Core/Src/can.c **** 
  25:Core/Src/can.c **** /* USER CODE END 0 */
  26:Core/Src/can.c **** 
  27:Core/Src/can.c **** CAN_HandleTypeDef hcan;
  28:Core/Src/can.c **** 
  29:Core/Src/can.c **** /* CAN init function */
  30:Core/Src/can.c **** void MX_CAN_Init(void)
  31:Core/Src/can.c **** {
  27              		.loc 1 31 1 view -0
ARM GAS  C:\Users\Main\AppData\Local\Temp\ccXh0QiE.s 			page 2


  28              		.cfi_startproc
  29              		@ args = 0, pretend = 0, frame = 0
  30              		@ frame_needed = 0, uses_anonymous_args = 0
  31 0000 08B5     		push	{r3, lr}
  32              	.LCFI0:
  33              		.cfi_def_cfa_offset 8
  34              		.cfi_offset 3, -8
  35              		.cfi_offset 14, -4
  32:Core/Src/can.c **** 
  33:Core/Src/can.c ****   hcan.Instance = CAN1;
  36              		.loc 1 33 3 view .LVU1
  37              		.loc 1 33 17 is_stmt 0 view .LVU2
  38 0002 0D48     		ldr	r0, .L5
  39 0004 0D4B     		ldr	r3, .L5+4
  40 0006 0360     		str	r3, [r0]
  34:Core/Src/can.c ****   hcan.Init.Prescaler = 6;
  41              		.loc 1 34 3 is_stmt 1 view .LVU3
  42              		.loc 1 34 23 is_stmt 0 view .LVU4
  43 0008 0623     		movs	r3, #6
  44 000a 4360     		str	r3, [r0, #4]
  35:Core/Src/can.c ****   hcan.Init.Mode = CAN_MODE_NORMAL;
  45              		.loc 1 35 3 is_stmt 1 view .LVU5
  46              		.loc 1 35 18 is_stmt 0 view .LVU6
  47 000c 0023     		movs	r3, #0
  48 000e 8360     		str	r3, [r0, #8]
  36:Core/Src/can.c ****   hcan.Init.SyncJumpWidth = CAN_SJW_1TQ;
  49              		.loc 1 36 3 is_stmt 1 view .LVU7
  50              		.loc 1 36 27 is_stmt 0 view .LVU8
  51 0010 C360     		str	r3, [r0, #12]
  37:Core/Src/can.c ****   hcan.Init.TimeSeg1 = CAN_BS1_13TQ;
  52              		.loc 1 37 3 is_stmt 1 view .LVU9
  53              		.loc 1 37 22 is_stmt 0 view .LVU10
  54 0012 4FF44022 		mov	r2, #786432
  55 0016 0261     		str	r2, [r0, #16]
  38:Core/Src/can.c ****   hcan.Init.TimeSeg2 = CAN_BS2_2TQ;
  56              		.loc 1 38 3 is_stmt 1 view .LVU11
  57              		.loc 1 38 22 is_stmt 0 view .LVU12
  58 0018 4FF48012 		mov	r2, #1048576
  59 001c 4261     		str	r2, [r0, #20]
  39:Core/Src/can.c ****   hcan.Init.TimeTriggeredMode = DISABLE;
  60              		.loc 1 39 3 is_stmt 1 view .LVU13
  61              		.loc 1 39 31 is_stmt 0 view .LVU14
  62 001e 0376     		strb	r3, [r0, #24]
  40:Core/Src/can.c ****   hcan.Init.AutoBusOff = DISABLE;
  63              		.loc 1 40 3 is_stmt 1 view .LVU15
  64              		.loc 1 40 24 is_stmt 0 view .LVU16
  65 0020 4376     		strb	r3, [r0, #25]
  41:Core/Src/can.c ****   hcan.Init.AutoWakeUp = DISABLE;
  66              		.loc 1 41 3 is_stmt 1 view .LVU17
  67              		.loc 1 41 24 is_stmt 0 view .LVU18
  68 0022 8376     		strb	r3, [r0, #26]
  42:Core/Src/can.c ****   hcan.Init.AutoRetransmission = DISABLE;
  69              		.loc 1 42 3 is_stmt 1 view .LVU19
  70              		.loc 1 42 32 is_stmt 0 view .LVU20
  71 0024 C376     		strb	r3, [r0, #27]
  43:Core/Src/can.c ****   hcan.Init.ReceiveFifoLocked = DISABLE;
  72              		.loc 1 43 3 is_stmt 1 view .LVU21
ARM GAS  C:\Users\Main\AppData\Local\Temp\ccXh0QiE.s 			page 3


  73              		.loc 1 43 31 is_stmt 0 view .LVU22
  74 0026 0377     		strb	r3, [r0, #28]
  44:Core/Src/can.c ****   hcan.Init.TransmitFifoPriority = DISABLE;
  75              		.loc 1 44 3 is_stmt 1 view .LVU23
  76              		.loc 1 44 34 is_stmt 0 view .LVU24
  77 0028 4377     		strb	r3, [r0, #29]
  45:Core/Src/can.c ****   if (HAL_CAN_Init(&hcan) != HAL_OK)
  78              		.loc 1 45 3 is_stmt 1 view .LVU25
  79              		.loc 1 45 7 is_stmt 0 view .LVU26
  80 002a FFF7FEFF 		bl	HAL_CAN_Init
  81              	.LVL0:
  82              		.loc 1 45 6 view .LVU27
  83 002e 00B9     		cbnz	r0, .L4
  84              	.L1:
  46:Core/Src/can.c ****   {
  47:Core/Src/can.c ****     Error_Handler();
  48:Core/Src/can.c ****   }
  49:Core/Src/can.c **** 
  50:Core/Src/can.c **** }
  85              		.loc 1 50 1 view .LVU28
  86 0030 08BD     		pop	{r3, pc}
  87              	.L4:
  47:Core/Src/can.c ****   }
  88              		.loc 1 47 5 is_stmt 1 view .LVU29
  89 0032 FFF7FEFF 		bl	Error_Handler
  90              	.LVL1:
  91              		.loc 1 50 1 is_stmt 0 view .LVU30
  92 0036 FBE7     		b	.L1
  93              	.L6:
  94              		.align	2
  95              	.L5:
  96 0038 00000000 		.word	hcan
  97 003c 00640040 		.word	1073767424
  98              		.cfi_endproc
  99              	.LFE65:
 101              		.section	.text.HAL_CAN_MspInit,"ax",%progbits
 102              		.align	1
 103              		.global	HAL_CAN_MspInit
 104              		.syntax unified
 105              		.thumb
 106              		.thumb_func
 107              		.fpu softvfp
 109              	HAL_CAN_MspInit:
 110              	.LVL2:
 111              	.LFB66:
  51:Core/Src/can.c **** 
  52:Core/Src/can.c **** void HAL_CAN_MspInit(CAN_HandleTypeDef* canHandle)
  53:Core/Src/can.c **** {
 112              		.loc 1 53 1 is_stmt 1 view -0
 113              		.cfi_startproc
 114              		@ args = 0, pretend = 0, frame = 24
 115              		@ frame_needed = 0, uses_anonymous_args = 0
 116              		.loc 1 53 1 is_stmt 0 view .LVU32
 117 0000 10B5     		push	{r4, lr}
 118              	.LCFI1:
 119              		.cfi_def_cfa_offset 8
 120              		.cfi_offset 4, -8
ARM GAS  C:\Users\Main\AppData\Local\Temp\ccXh0QiE.s 			page 4


 121              		.cfi_offset 14, -4
 122 0002 86B0     		sub	sp, sp, #24
 123              	.LCFI2:
 124              		.cfi_def_cfa_offset 32
  54:Core/Src/can.c **** 
  55:Core/Src/can.c ****   GPIO_InitTypeDef GPIO_InitStruct = {0};
 125              		.loc 1 55 3 is_stmt 1 view .LVU33
 126              		.loc 1 55 20 is_stmt 0 view .LVU34
 127 0004 0023     		movs	r3, #0
 128 0006 0293     		str	r3, [sp, #8]
 129 0008 0393     		str	r3, [sp, #12]
 130 000a 0493     		str	r3, [sp, #16]
 131 000c 0593     		str	r3, [sp, #20]
  56:Core/Src/can.c ****   if(canHandle->Instance==CAN1)
 132              		.loc 1 56 3 is_stmt 1 view .LVU35
 133              		.loc 1 56 15 is_stmt 0 view .LVU36
 134 000e 0268     		ldr	r2, [r0]
 135              		.loc 1 56 5 view .LVU37
 136 0010 1E4B     		ldr	r3, .L11
 137 0012 9A42     		cmp	r2, r3
 138 0014 01D0     		beq	.L10
 139              	.LVL3:
 140              	.L7:
  57:Core/Src/can.c ****   {
  58:Core/Src/can.c ****   /* USER CODE BEGIN CAN1_MspInit 0 */
  59:Core/Src/can.c **** 
  60:Core/Src/can.c ****   /* USER CODE END CAN1_MspInit 0 */
  61:Core/Src/can.c ****     /* CAN1 clock enable */
  62:Core/Src/can.c ****     __HAL_RCC_CAN1_CLK_ENABLE();
  63:Core/Src/can.c ****   
  64:Core/Src/can.c ****     __HAL_RCC_GPIOB_CLK_ENABLE();
  65:Core/Src/can.c ****     /**CAN GPIO Configuration    
  66:Core/Src/can.c ****     PB8     ------> CAN_RX
  67:Core/Src/can.c ****     PB9     ------> CAN_TX 
  68:Core/Src/can.c ****     */
  69:Core/Src/can.c ****     GPIO_InitStruct.Pin = GPIO_PIN_8;
  70:Core/Src/can.c ****     GPIO_InitStruct.Mode = GPIO_MODE_INPUT;
  71:Core/Src/can.c ****     GPIO_InitStruct.Pull = GPIO_NOPULL;
  72:Core/Src/can.c ****     HAL_GPIO_Init(GPIOB, &GPIO_InitStruct);
  73:Core/Src/can.c **** 
  74:Core/Src/can.c ****     GPIO_InitStruct.Pin = GPIO_PIN_9;
  75:Core/Src/can.c ****     GPIO_InitStruct.Mode = GPIO_MODE_AF_PP;
  76:Core/Src/can.c ****     GPIO_InitStruct.Speed = GPIO_SPEED_FREQ_HIGH;
  77:Core/Src/can.c ****     HAL_GPIO_Init(GPIOB, &GPIO_InitStruct);
  78:Core/Src/can.c **** 
  79:Core/Src/can.c ****     __HAL_AFIO_REMAP_CAN1_2();
  80:Core/Src/can.c **** 
  81:Core/Src/can.c ****     /* CAN1 interrupt Init */
  82:Core/Src/can.c ****     HAL_NVIC_SetPriority(USB_LP_CAN1_RX0_IRQn, 0, 0);
  83:Core/Src/can.c ****     HAL_NVIC_EnableIRQ(USB_LP_CAN1_RX0_IRQn);
  84:Core/Src/can.c ****   /* USER CODE BEGIN CAN1_MspInit 1 */
  85:Core/Src/can.c **** 
  86:Core/Src/can.c ****   /* USER CODE END CAN1_MspInit 1 */
  87:Core/Src/can.c ****   }
  88:Core/Src/can.c **** }
 141              		.loc 1 88 1 view .LVU38
 142 0016 06B0     		add	sp, sp, #24
ARM GAS  C:\Users\Main\AppData\Local\Temp\ccXh0QiE.s 			page 5


 143              	.LCFI3:
 144              		.cfi_remember_state
 145              		.cfi_def_cfa_offset 8
 146              		@ sp needed
 147 0018 10BD     		pop	{r4, pc}
 148              	.LVL4:
 149              	.L10:
 150              	.LCFI4:
 151              		.cfi_restore_state
  62:Core/Src/can.c ****   
 152              		.loc 1 62 5 is_stmt 1 view .LVU39
 153              	.LBB2:
  62:Core/Src/can.c ****   
 154              		.loc 1 62 5 view .LVU40
  62:Core/Src/can.c ****   
 155              		.loc 1 62 5 view .LVU41
 156 001a 03F5D633 		add	r3, r3, #109568
 157 001e DA69     		ldr	r2, [r3, #28]
 158 0020 42F00072 		orr	r2, r2, #33554432
 159 0024 DA61     		str	r2, [r3, #28]
  62:Core/Src/can.c ****   
 160              		.loc 1 62 5 view .LVU42
 161 0026 DA69     		ldr	r2, [r3, #28]
 162 0028 02F00072 		and	r2, r2, #33554432
 163 002c 0092     		str	r2, [sp]
  62:Core/Src/can.c ****   
 164              		.loc 1 62 5 view .LVU43
 165 002e 009A     		ldr	r2, [sp]
 166              	.LBE2:
  64:Core/Src/can.c ****     /**CAN GPIO Configuration    
 167              		.loc 1 64 5 view .LVU44
 168              	.LBB3:
  64:Core/Src/can.c ****     /**CAN GPIO Configuration    
 169              		.loc 1 64 5 view .LVU45
  64:Core/Src/can.c ****     /**CAN GPIO Configuration    
 170              		.loc 1 64 5 view .LVU46
 171 0030 9A69     		ldr	r2, [r3, #24]
 172 0032 42F00802 		orr	r2, r2, #8
 173 0036 9A61     		str	r2, [r3, #24]
  64:Core/Src/can.c ****     /**CAN GPIO Configuration    
 174              		.loc 1 64 5 view .LVU47
 175 0038 9B69     		ldr	r3, [r3, #24]
 176 003a 03F00803 		and	r3, r3, #8
 177 003e 0193     		str	r3, [sp, #4]
  64:Core/Src/can.c ****     /**CAN GPIO Configuration    
 178              		.loc 1 64 5 view .LVU48
 179 0040 019B     		ldr	r3, [sp, #4]
 180              	.LBE3:
  69:Core/Src/can.c ****     GPIO_InitStruct.Mode = GPIO_MODE_INPUT;
 181              		.loc 1 69 5 view .LVU49
  69:Core/Src/can.c ****     GPIO_InitStruct.Mode = GPIO_MODE_INPUT;
 182              		.loc 1 69 25 is_stmt 0 view .LVU50
 183 0042 4FF48073 		mov	r3, #256
 184 0046 0293     		str	r3, [sp, #8]
  70:Core/Src/can.c ****     GPIO_InitStruct.Pull = GPIO_NOPULL;
 185              		.loc 1 70 5 is_stmt 1 view .LVU51
  71:Core/Src/can.c ****     HAL_GPIO_Init(GPIOB, &GPIO_InitStruct);
ARM GAS  C:\Users\Main\AppData\Local\Temp\ccXh0QiE.s 			page 6


 186              		.loc 1 71 5 view .LVU52
  72:Core/Src/can.c **** 
 187              		.loc 1 72 5 view .LVU53
 188 0048 114C     		ldr	r4, .L11+4
 189 004a 02A9     		add	r1, sp, #8
 190 004c 2046     		mov	r0, r4
 191              	.LVL5:
  72:Core/Src/can.c **** 
 192              		.loc 1 72 5 is_stmt 0 view .LVU54
 193 004e FFF7FEFF 		bl	HAL_GPIO_Init
 194              	.LVL6:
  74:Core/Src/can.c ****     GPIO_InitStruct.Mode = GPIO_MODE_AF_PP;
 195              		.loc 1 74 5 is_stmt 1 view .LVU55
  74:Core/Src/can.c ****     GPIO_InitStruct.Mode = GPIO_MODE_AF_PP;
 196              		.loc 1 74 25 is_stmt 0 view .LVU56
 197 0052 4FF40073 		mov	r3, #512
 198 0056 0293     		str	r3, [sp, #8]
  75:Core/Src/can.c ****     GPIO_InitStruct.Speed = GPIO_SPEED_FREQ_HIGH;
 199              		.loc 1 75 5 is_stmt 1 view .LVU57
  75:Core/Src/can.c ****     GPIO_InitStruct.Speed = GPIO_SPEED_FREQ_HIGH;
 200              		.loc 1 75 26 is_stmt 0 view .LVU58
 201 0058 0223     		movs	r3, #2
 202 005a 0393     		str	r3, [sp, #12]
  76:Core/Src/can.c ****     HAL_GPIO_Init(GPIOB, &GPIO_InitStruct);
 203              		.loc 1 76 5 is_stmt 1 view .LVU59
  76:Core/Src/can.c ****     HAL_GPIO_Init(GPIOB, &GPIO_InitStruct);
 204              		.loc 1 76 27 is_stmt 0 view .LVU60
 205 005c 0323     		movs	r3, #3
 206 005e 0593     		str	r3, [sp, #20]
  77:Core/Src/can.c **** 
 207              		.loc 1 77 5 is_stmt 1 view .LVU61
 208 0060 02A9     		add	r1, sp, #8
 209 0062 2046     		mov	r0, r4
 210 0064 FFF7FEFF 		bl	HAL_GPIO_Init
 211              	.LVL7:
  79:Core/Src/can.c **** 
 212              		.loc 1 79 5 view .LVU62
 213              	.LBB4:
  79:Core/Src/can.c **** 
 214              		.loc 1 79 5 view .LVU63
 215 0068 0A4A     		ldr	r2, .L11+8
 216 006a 5368     		ldr	r3, [r2, #4]
 217              	.LVL8:
  79:Core/Src/can.c **** 
 218              		.loc 1 79 5 view .LVU64
 219 006c 23F4C043 		bic	r3, r3, #24576
 220              	.LVL9:
  79:Core/Src/can.c **** 
 221              		.loc 1 79 5 view .LVU65
  79:Core/Src/can.c **** 
 222              		.loc 1 79 5 view .LVU66
 223 0070 43F0E063 		orr	r3, r3, #117440512
 224              	.LVL10:
  79:Core/Src/can.c **** 
 225              		.loc 1 79 5 is_stmt 0 view .LVU67
 226 0074 43F48043 		orr	r3, r3, #16384
 227              	.LVL11:
ARM GAS  C:\Users\Main\AppData\Local\Temp\ccXh0QiE.s 			page 7


  79:Core/Src/can.c **** 
 228              		.loc 1 79 5 is_stmt 1 view .LVU68
 229 0078 5360     		str	r3, [r2, #4]
 230              	.LBE4:
  82:Core/Src/can.c ****     HAL_NVIC_EnableIRQ(USB_LP_CAN1_RX0_IRQn);
 231              		.loc 1 82 5 view .LVU69
 232 007a 0022     		movs	r2, #0
 233 007c 1146     		mov	r1, r2
 234 007e 1420     		movs	r0, #20
 235 0080 FFF7FEFF 		bl	HAL_NVIC_SetPriority
 236              	.LVL12:
  83:Core/Src/can.c ****   /* USER CODE BEGIN CAN1_MspInit 1 */
 237              		.loc 1 83 5 view .LVU70
 238 0084 1420     		movs	r0, #20
 239 0086 FFF7FEFF 		bl	HAL_NVIC_EnableIRQ
 240              	.LVL13:
 241              		.loc 1 88 1 is_stmt 0 view .LVU71
 242 008a C4E7     		b	.L7
 243              	.L12:
 244              		.align	2
 245              	.L11:
 246 008c 00640040 		.word	1073767424
 247 0090 000C0140 		.word	1073810432
 248 0094 00000140 		.word	1073807360
 249              		.cfi_endproc
 250              	.LFE66:
 252              		.section	.text.HAL_CAN_MspDeInit,"ax",%progbits
 253              		.align	1
 254              		.global	HAL_CAN_MspDeInit
 255              		.syntax unified
 256              		.thumb
 257              		.thumb_func
 258              		.fpu softvfp
 260              	HAL_CAN_MspDeInit:
 261              	.LVL14:
 262              	.LFB67:
  89:Core/Src/can.c **** 
  90:Core/Src/can.c **** void HAL_CAN_MspDeInit(CAN_HandleTypeDef* canHandle)
  91:Core/Src/can.c **** {
 263              		.loc 1 91 1 is_stmt 1 view -0
 264              		.cfi_startproc
 265              		@ args = 0, pretend = 0, frame = 0
 266              		@ frame_needed = 0, uses_anonymous_args = 0
 267              		.loc 1 91 1 is_stmt 0 view .LVU73
 268 0000 08B5     		push	{r3, lr}
 269              	.LCFI5:
 270              		.cfi_def_cfa_offset 8
 271              		.cfi_offset 3, -8
 272              		.cfi_offset 14, -4
  92:Core/Src/can.c **** 
  93:Core/Src/can.c ****   if(canHandle->Instance==CAN1)
 273              		.loc 1 93 3 is_stmt 1 view .LVU74
 274              		.loc 1 93 15 is_stmt 0 view .LVU75
 275 0002 0268     		ldr	r2, [r0]
 276              		.loc 1 93 5 view .LVU76
 277 0004 084B     		ldr	r3, .L17
 278 0006 9A42     		cmp	r2, r3
ARM GAS  C:\Users\Main\AppData\Local\Temp\ccXh0QiE.s 			page 8


 279 0008 00D0     		beq	.L16
 280              	.LVL15:
 281              	.L13:
  94:Core/Src/can.c ****   {
  95:Core/Src/can.c ****   /* USER CODE BEGIN CAN1_MspDeInit 0 */
  96:Core/Src/can.c **** 
  97:Core/Src/can.c ****   /* USER CODE END CAN1_MspDeInit 0 */
  98:Core/Src/can.c ****     /* Peripheral clock disable */
  99:Core/Src/can.c ****     __HAL_RCC_CAN1_CLK_DISABLE();
 100:Core/Src/can.c ****   
 101:Core/Src/can.c ****     /**CAN GPIO Configuration    
 102:Core/Src/can.c ****     PB8     ------> CAN_RX
 103:Core/Src/can.c ****     PB9     ------> CAN_TX 
 104:Core/Src/can.c ****     */
 105:Core/Src/can.c ****     HAL_GPIO_DeInit(GPIOB, GPIO_PIN_8|GPIO_PIN_9);
 106:Core/Src/can.c **** 
 107:Core/Src/can.c ****     /* CAN1 interrupt Deinit */
 108:Core/Src/can.c ****     HAL_NVIC_DisableIRQ(USB_LP_CAN1_RX0_IRQn);
 109:Core/Src/can.c ****   /* USER CODE BEGIN CAN1_MspDeInit 1 */
 110:Core/Src/can.c **** 
 111:Core/Src/can.c ****   /* USER CODE END CAN1_MspDeInit 1 */
 112:Core/Src/can.c ****   }
 113:Core/Src/can.c **** } 
 282              		.loc 1 113 1 view .LVU77
 283 000a 08BD     		pop	{r3, pc}
 284              	.LVL16:
 285              	.L16:
  99:Core/Src/can.c ****   
 286              		.loc 1 99 5 is_stmt 1 view .LVU78
 287 000c 074A     		ldr	r2, .L17+4
 288 000e D369     		ldr	r3, [r2, #28]
 289 0010 23F00073 		bic	r3, r3, #33554432
 290 0014 D361     		str	r3, [r2, #28]
 105:Core/Src/can.c **** 
 291              		.loc 1 105 5 view .LVU79
 292 0016 4FF44071 		mov	r1, #768
 293 001a 0548     		ldr	r0, .L17+8
 294              	.LVL17:
 105:Core/Src/can.c **** 
 295              		.loc 1 105 5 is_stmt 0 view .LVU80
 296 001c FFF7FEFF 		bl	HAL_GPIO_DeInit
 297              	.LVL18:
 108:Core/Src/can.c ****   /* USER CODE BEGIN CAN1_MspDeInit 1 */
 298              		.loc 1 108 5 is_stmt 1 view .LVU81
 299 0020 1420     		movs	r0, #20
 300 0022 FFF7FEFF 		bl	HAL_NVIC_DisableIRQ
 301              	.LVL19:
 302              		.loc 1 113 1 is_stmt 0 view .LVU82
 303 0026 F0E7     		b	.L13
 304              	.L18:
 305              		.align	2
 306              	.L17:
 307 0028 00640040 		.word	1073767424
 308 002c 00100240 		.word	1073876992
 309 0030 000C0140 		.word	1073810432
 310              		.cfi_endproc
 311              	.LFE67:
ARM GAS  C:\Users\Main\AppData\Local\Temp\ccXh0QiE.s 			page 9


 313              		.section	.text.CAN_Config,"ax",%progbits
 314              		.align	1
 315              		.global	CAN_Config
 316              		.syntax unified
 317              		.thumb
 318              		.thumb_func
 319              		.fpu softvfp
 321              	CAN_Config:
 322              	.LFB68:
 114:Core/Src/can.c **** 
 115:Core/Src/can.c **** /* USER CODE BEGIN 1 */
 116:Core/Src/can.c **** void CAN_Config(void)
 117:Core/Src/can.c **** {
 323              		.loc 1 117 1 is_stmt 1 view -0
 324              		.cfi_startproc
 325              		@ args = 0, pretend = 0, frame = 40
 326              		@ frame_needed = 0, uses_anonymous_args = 0
 327 0000 10B5     		push	{r4, lr}
 328              	.LCFI6:
 329              		.cfi_def_cfa_offset 8
 330              		.cfi_offset 4, -8
 331              		.cfi_offset 14, -4
 332 0002 8AB0     		sub	sp, sp, #40
 333              	.LCFI7:
 334              		.cfi_def_cfa_offset 48
 118:Core/Src/can.c ****   CAN_FilterTypeDef sFilterConfig;
 335              		.loc 1 118 3 view .LVU84
 119:Core/Src/can.c **** 
 120:Core/Src/can.c ****   sFilterConfig.FilterBank = 0;
 336              		.loc 1 120 3 view .LVU85
 337              		.loc 1 120 28 is_stmt 0 view .LVU86
 338 0004 0023     		movs	r3, #0
 339 0006 0593     		str	r3, [sp, #20]
 121:Core/Src/can.c ****   sFilterConfig.FilterMode = CAN_FILTERMODE_IDMASK;
 340              		.loc 1 121 3 is_stmt 1 view .LVU87
 341              		.loc 1 121 28 is_stmt 0 view .LVU88
 342 0008 0693     		str	r3, [sp, #24]
 122:Core/Src/can.c ****   sFilterConfig.FilterScale = CAN_FILTERSCALE_32BIT;
 343              		.loc 1 122 3 is_stmt 1 view .LVU89
 344              		.loc 1 122 29 is_stmt 0 view .LVU90
 345 000a 0122     		movs	r2, #1
 346 000c 0792     		str	r2, [sp, #28]
 123:Core/Src/can.c ****   sFilterConfig.FilterIdHigh = 0x0; 
 347              		.loc 1 123 3 is_stmt 1 view .LVU91
 348              		.loc 1 123 30 is_stmt 0 view .LVU92
 349 000e 0093     		str	r3, [sp]
 124:Core/Src/can.c ****   sFilterConfig.FilterIdLow = 0x0;
 350              		.loc 1 124 3 is_stmt 1 view .LVU93
 351              		.loc 1 124 29 is_stmt 0 view .LVU94
 352 0010 0193     		str	r3, [sp, #4]
 125:Core/Src/can.c ****   sFilterConfig.FilterMaskIdHigh = 0x0; 
 353              		.loc 1 125 3 is_stmt 1 view .LVU95
 354              		.loc 1 125 34 is_stmt 0 view .LVU96
 355 0012 0293     		str	r3, [sp, #8]
 126:Core/Src/can.c ****   sFilterConfig.FilterMaskIdLow = 0x0;
 356              		.loc 1 126 3 is_stmt 1 view .LVU97
 357              		.loc 1 126 33 is_stmt 0 view .LVU98
ARM GAS  C:\Users\Main\AppData\Local\Temp\ccXh0QiE.s 			page 10


 358 0014 0393     		str	r3, [sp, #12]
 127:Core/Src/can.c ****   sFilterConfig.FilterFIFOAssignment = CAN_RX_FIFO0;
 359              		.loc 1 127 3 is_stmt 1 view .LVU99
 360              		.loc 1 127 38 is_stmt 0 view .LVU100
 361 0016 0493     		str	r3, [sp, #16]
 128:Core/Src/can.c ****   sFilterConfig.FilterActivation = ENABLE;
 362              		.loc 1 128 3 is_stmt 1 view .LVU101
 363              		.loc 1 128 34 is_stmt 0 view .LVU102
 364 0018 0892     		str	r2, [sp, #32]
 129:Core/Src/can.c ****   sFilterConfig.SlaveStartFilterBank = 14;
 365              		.loc 1 129 3 is_stmt 1 view .LVU103
 366              		.loc 1 129 38 is_stmt 0 view .LVU104
 367 001a 0E23     		movs	r3, #14
 368 001c 0993     		str	r3, [sp, #36]
 130:Core/Src/can.c **** 
 131:Core/Src/can.c ****   HAL_CAN_ConfigFilter(&hcan, &sFilterConfig); 
 369              		.loc 1 131 3 is_stmt 1 view .LVU105
 370 001e 074C     		ldr	r4, .L21
 371 0020 6946     		mov	r1, sp
 372 0022 2046     		mov	r0, r4
 373 0024 FFF7FEFF 		bl	HAL_CAN_ConfigFilter
 374              	.LVL20:
 132:Core/Src/can.c **** 
 133:Core/Src/can.c ****   HAL_CAN_Start(&hcan); 
 375              		.loc 1 133 3 view .LVU106
 376 0028 2046     		mov	r0, r4
 377 002a FFF7FEFF 		bl	HAL_CAN_Start
 378              	.LVL21:
 134:Core/Src/can.c **** 
 135:Core/Src/can.c ****   HAL_CAN_ActivateNotification(&hcan, CAN_IT_RX_FIFO0_MSG_PENDING); 
 379              		.loc 1 135 3 view .LVU107
 380 002e 0221     		movs	r1, #2
 381 0030 2046     		mov	r0, r4
 382 0032 FFF7FEFF 		bl	HAL_CAN_ActivateNotification
 383              	.LVL22:
 136:Core/Src/can.c **** }
 384              		.loc 1 136 1 is_stmt 0 view .LVU108
 385 0036 0AB0     		add	sp, sp, #40
 386              	.LCFI8:
 387              		.cfi_def_cfa_offset 8
 388              		@ sp needed
 389 0038 10BD     		pop	{r4, pc}
 390              	.L22:
 391 003a 00BF     		.align	2
 392              	.L21:
 393 003c 00000000 		.word	hcan
 394              		.cfi_endproc
 395              	.LFE68:
 397              		.section	.text.HAL_CAN_RxFifo0MsgPendingCallback,"ax",%progbits
 398              		.align	1
 399              		.global	HAL_CAN_RxFifo0MsgPendingCallback
 400              		.syntax unified
 401              		.thumb
 402              		.thumb_func
 403              		.fpu softvfp
 405              	HAL_CAN_RxFifo0MsgPendingCallback:
 406              	.LVL23:
ARM GAS  C:\Users\Main\AppData\Local\Temp\ccXh0QiE.s 			page 11


 407              	.LFB69:
 137:Core/Src/can.c **** 
 138:Core/Src/can.c **** void HAL_CAN_RxFifo0MsgPendingCallback (CAN_HandleTypeDef * hcan)
 139:Core/Src/can.c **** {
 408              		.loc 1 139 1 is_stmt 1 view -0
 409              		.cfi_startproc
 410              		@ args = 0, pretend = 0, frame = 0
 411              		@ frame_needed = 0, uses_anonymous_args = 0
 412              		.loc 1 139 1 is_stmt 0 view .LVU110
 413 0000 08B5     		push	{r3, lr}
 414              	.LCFI9:
 415              		.cfi_def_cfa_offset 8
 416              		.cfi_offset 3, -8
 417              		.cfi_offset 14, -4
 140:Core/Src/can.c ****   HAL_CAN_GetRxMessage (hcan, CAN_RX_FIFO0, &RxHeader, RxData);
 418              		.loc 1 140 3 is_stmt 1 view .LVU111
 419 0002 054B     		ldr	r3, .L25
 420 0004 054A     		ldr	r2, .L25+4
 421 0006 0021     		movs	r1, #0
 422 0008 FFF7FEFF 		bl	HAL_CAN_GetRxMessage
 423              	.LVL24:
 141:Core/Src/can.c ****   HAL_GPIO_TogglePin(GPIOC, GPIO_PIN_13);
 424              		.loc 1 141 3 view .LVU112
 425 000c 4FF40051 		mov	r1, #8192
 426 0010 0348     		ldr	r0, .L25+8
 427 0012 FFF7FEFF 		bl	HAL_GPIO_TogglePin
 428              	.LVL25:
 142:Core/Src/can.c **** }
 429              		.loc 1 142 1 is_stmt 0 view .LVU113
 430 0016 08BD     		pop	{r3, pc}
 431              	.L26:
 432              		.align	2
 433              	.L25:
 434 0018 00000000 		.word	RxData
 435 001c 00000000 		.word	RxHeader
 436 0020 00100140 		.word	1073811456
 437              		.cfi_endproc
 438              	.LFE69:
 440              		.comm	hcan,40,4
 441              		.comm	TxMailbox,4,4
 442              		.comm	RxData,8,4
 443              		.comm	TxData,8,4
 444              		.comm	RxHeader,28,4
 445              		.comm	TxHeader,24,4
 446              		.text
 447              	.Letext0:
 448              		.file 2 "c:\\stm32\\armembeddedgcc\\arm-none-eabi\\include\\machine\\_default_types.h"
 449              		.file 3 "c:\\stm32\\armembeddedgcc\\arm-none-eabi\\include\\sys\\_stdint.h"
 450              		.file 4 "Drivers/CMSIS/Include/core_cm3.h"
 451              		.file 5 "Drivers/CMSIS/Device/ST/STM32F1xx/Include/system_stm32f1xx.h"
 452              		.file 6 "Drivers/CMSIS/Device/ST/STM32F1xx/Include/stm32f103xb.h"
 453              		.file 7 "Drivers/CMSIS/Device/ST/STM32F1xx/Include/stm32f1xx.h"
 454              		.file 8 "Drivers/STM32F1xx_HAL_Driver/Inc/stm32f1xx_hal_def.h"
 455              		.file 9 "Drivers/STM32F1xx_HAL_Driver/Inc/stm32f1xx_hal_gpio.h"
 456              		.file 10 "Drivers/STM32F1xx_HAL_Driver/Inc/stm32f1xx_hal_can.h"
 457              		.file 11 "Drivers/STM32F1xx_HAL_Driver/Inc/stm32f1xx_hal.h"
 458              		.file 12 "Core/Inc/can.h"
ARM GAS  C:\Users\Main\AppData\Local\Temp\ccXh0QiE.s 			page 12


 459              		.file 13 "Drivers/STM32F1xx_HAL_Driver/Inc/stm32f1xx_hal_cortex.h"
 460              		.file 14 "Core/Inc/main.h"
ARM GAS  C:\Users\Main\AppData\Local\Temp\ccXh0QiE.s 			page 13

